Certificate:
    Data:
        Version: 3 (0x2)
        Serial Number: 1 (0x1)
    Signature Algorithm: sha1WithRSAEncryption
        Issuer: DC=com, DC=serdardemirci55, O=Serdardemirci55 Inc, OU=Serdardemirci55 Signing CA, CN=Serdardemirci55 Signing CA
        Validity
            Not Before: Nov 19 11:39:23 2021 GMT
            Not After : Nov 19 11:39:23 2023 GMT
        Subject: DC=com, DC=serdardemirci55, O=Serdardemirci55 Inc, CN=Serdar Demirci
        Subject Public Key Info:
            Public Key Algorithm: rsaEncryption
                Public-Key: (2048 bit)
                Modulus:
                    00:cc:56:1b:03:fc:cf:43:44:60:3c:7e:ea:29:11:
                    0d:f8:94:d7:bc:75:22:cc:35:1e:60:3a:46:4d:63:
                    61:49:86:01:43:1d:0f:55:ba:42:ce:3f:ef:ab:07:
                    46:78:e5:e3:c4:1c:02:45:63:b9:20:ff:1e:66:fe:
                    34:21:47:5d:38:89:8e:da:07:84:12:21:83:55:14:
                    a5:54:dd:1c:18:b6:b5:4f:7a:1d:db:7a:ad:04:ba:
                    5c:42:29:d1:68:c0:bc:b6:e7:18:5e:67:c4:7a:e4:
                    9d:8a:4f:92:cf:ab:c9:c0:ef:52:92:f0:82:89:03:
                    38:aa:cb:02:ba:5e:fe:f0:e0:57:4a:0f:2f:f4:51:
                    81:94:42:dc:96:34:96:33:64:62:cd:8c:81:5f:ee:
                    a8:13:3c:6e:bb:02:1f:4d:bf:e2:ce:80:4b:c8:4f:
                    33:7b:c7:fb:8a:33:ec:18:a4:b5:c0:b7:04:65:8c:
                    fe:a2:f5:8d:6c:5a:aa:6c:c8:2a:aa:dc:58:e0:bb:
                    20:4d:00:68:e6:81:9d:39:db:ca:e5:d0:21:9b:73:
                    34:6f:19:d6:84:e1:5a:35:dc:57:36:ba:b4:da:8b:
                    32:35:26:c9:cc:90:23:81:90:50:d2:39:27:02:2f:
                    8a:48:5b:18:b3:b6:f3:5b:f8:a6:f2:f1:c3:06:ff:
                    54:2b
                Exponent: 65537 (0x10001)
        X509v3 extensions:
            X509v3 Key Usage: critical
                Digital Signature, Key Encipherment
            X509v3 Basic Constraints: 
                CA:FALSE
            X509v3 Extended Key Usage: 
                E-mail Protection, TLS Web Client Authentication
            X509v3 Subject Key Identifier: 
                1E:AA:D6:00:DC:5E:D7:9A:0A:0F:82:CF:E6:7F:72:A7:FA:92:C5:0E
            X509v3 Authority Key Identifier: 
                keyid:50:A3:98:A2:0C:D8:8B:93:15:94:01:8C:C4:DB:8E:6B:FA:BB:FA:88

            X509v3 Subject Alternative Name: 
                email:serdar@serdardemirci55.com
    Signature Algorithm: sha1WithRSAEncryption
         37:6c:4a:27:4f:89:37:df:d4:b4:e6:06:15:5b:d9:69:6d:a7:
         17:e6:29:07:cf:78:1c:d5:d4:93:2a:10:a3:d0:90:97:7a:3a:
         df:db:5d:e8:65:50:51:4e:09:66:75:4a:56:59:25:47:ae:95:
         ac:e1:93:8c:71:59:0c:9c:0b:fb:1b:06:af:f5:03:bf:d7:f3:
         e8:83:ac:c2:cf:71:99:1d:36:58:d4:0f:35:dc:07:a4:16:fa:
         cc:ff:39:6e:12:3f:c3:4a:b0:c7:6e:ad:69:7a:b1:e6:40:23:
         dd:2f:f2:aa:f7:58:ed:10:53:ee:c9:8c:c2:37:88:37:b9:31:
         2e:b6:46:de:8e:f5:fb:a2:4e:1c:bd:7f:66:e1:65:3c:b9:79:
         34:5a:20:82:0a:69:03:4e:48:66:3f:9c:16:92:fb:cf:25:40:
         d5:6e:2f:9d:3f:a6:ff:33:8d:d2:1d:9f:9c:35:5f:0c:6c:66:
         d7:b4:0a:13:05:4c:ab:b5:9d:e4:1c:e7:d2:49:bb:b9:69:53:
         74:63:7e:4e:a2:68:f6:ab:30:20:95:52:97:d5:bc:ee:aa:3a:
         3c:d5:ef:6a:46:d8:eb:42:e4:76:19:e8:a3:02:65:1b:59:e6:
         2d:8c:6b:cd:42:c7:e5:da:2f:33:09:5a:cf:8f:74:cf:74:c1:
         9b:ba:db:06
-----BEGIN CERTIFICATE-----
MIIELDCCAxSgAwIBAgIBATANBgkqhkiG9w0BAQUFADCBnjETMBEGCgmSJomT8ixk
ARkWA2NvbTEfMB0GCgmSJomT8ixkARkWD3NlcmRhcmRlbWlyY2k1NTEcMBoGA1UE
CgwTU2VyZGFyZGVtaXJjaTU1IEluYzEjMCEGA1UECwwaU2VyZGFyZGVtaXJjaTU1
IFNpZ25pbmcgQ0ExIzAhBgNVBAMMGlNlcmRhcmRlbWlyY2k1NSBTaWduaW5nIENB
MB4XDTIxMTExOTExMzkyM1oXDTIzMTExOTExMzkyM1owbTETMBEGCgmSJomT8ixk
ARkWA2NvbTEfMB0GCgmSJomT8ixkARkWD3NlcmRhcmRlbWlyY2k1NTEcMBoGA1UE
CgwTU2VyZGFyZGVtaXJjaTU1IEluYzEXMBUGA1UEAwwOU2VyZGFyIERlbWlyY2kw
ggEiMA0GCSqGSIb3DQEBAQUAA4IBDwAwggEKAoIBAQDMVhsD/M9DRGA8fuopEQ34
lNe8dSLMNR5gOkZNY2FJhgFDHQ9VukLOP++rB0Z45ePEHAJFY7kg/x5m/jQhR104
iY7aB4QSIYNVFKVU3RwYtrVPeh3beq0EulxCKdFowLy25xheZ8R65J2KT5LPq8nA
71KS8IKJAziqywK6Xv7w4FdKDy/0UYGUQtyWNJYzZGLNjIFf7qgTPG67Ah9Nv+LO
gEvITzN7x/uKM+wYpLXAtwRljP6i9Y1sWqpsyCqq3FjguyBNAGjmgZ0528rl0CGb
czRvGdaE4Vo13Fc2urTaizI1JsnMkCOBkFDSOScCL4pIWxiztvNb+Kby8cMG/1Qr
AgMBAAGjgaQwgaEwDgYDVR0PAQH/BAQDAgWgMAkGA1UdEwQCMAAwHQYDVR0lBBYw
FAYIKwYBBQUHAwQGCCsGAQUFBwMCMB0GA1UdDgQWBBQeqtYA3F7XmgoPgs/mf3Kn
+pLFDjAfBgNVHSMEGDAWgBRQo5iiDNiLkxWUAYzE245r+rv6iDAlBgNVHREEHjAc
gRpzZXJkYXJAc2VyZGFyZGVtaXJjaTU1LmNvbTANBgkqhkiG9w0BAQUFAAOCAQEA
N2xKJ0+JN9/UtOYGFVvZaW2nF+YpB894HNXUkyoQo9CQl3o639td6GVQUU4JZnVK
VlklR66VrOGTjHFZDJwL+xsGr/UDv9fz6IOsws9xmR02WNQPNdwHpBb6zP85bhI/
w0qwx26taXqx5kAj3S/yqvdY7RBT7smMwjeIN7kxLrZG3o71+6JOHL1/ZuFlPLl5
NFogggppA05IZj+cFpL7zyVA1W4vnT+m/zON0h2fnDVfDGxm17QKEwVMq7Wd5Bzn
0km7uWlTdGN+TqJo9qswIJVSl9W87qo6PNXvakbY60LkdhnoowJlG1nmLYxrzULH
5dovMwlaz490z3TBm7rbBg==
-----END CERTIFICATE-----
