Certificate:
    Data:
        Version: 3 (0x2)
        Serial Number: 2 (0x2)
    Signature Algorithm: sha1WithRSAEncryption
        Issuer: DC=com, DC=serdardemirci55, O=Serdardemirci55 Inc, OU=Serdardemirci55 Signing CA, CN=Serdardemirci55 Signing CA
        Validity
            Not Before: Nov 19 11:45:30 2021 GMT
            Not After : Nov 19 11:45:30 2023 GMT
        Subject: DC=com, DC=serdardemirci55, O=Serdardemirci55 Inc, CN=www.serdardemirci55.com
        Subject Public Key Info:
            Public Key Algorithm: rsaEncryption
                Public-Key: (2048 bit)
                Modulus:
                    00:d8:57:47:1b:76:fb:d7:8b:d5:a5:aa:d2:9c:31:
                    21:c9:01:8c:65:2a:b8:08:16:bb:51:ba:47:55:f2:
                    61:2b:27:d2:2c:39:e9:75:c3:bf:2f:88:6d:09:e0:
                    7f:67:5c:0a:5c:4d:f9:f4:ba:12:99:74:a2:36:2d:
                    a1:c9:a1:54:18:3c:b5:e4:49:e0:6f:65:57:f9:3e:
                    f5:37:80:9d:71:fa:04:d5:4f:80:37:43:14:bf:13:
                    36:37:ef:e9:7b:13:a0:36:bb:7b:d9:f8:32:e8:38:
                    b7:dd:ba:87:7a:b0:16:75:d5:dd:1f:93:e1:22:a1:
                    61:ec:fd:7d:34:4d:d1:9c:0e:39:66:44:a1:66:be:
                    a3:b8:1d:05:8b:76:cf:60:50:7f:7e:60:75:8b:6d:
                    ca:8b:74:ff:d8:28:cf:e8:93:7f:17:b0:95:53:a5:
                    d9:62:6b:4a:7d:c3:41:a7:3e:35:6d:3a:36:64:8a:
                    e6:9f:57:91:5c:c1:f6:e1:1d:91:cd:cf:77:22:b7:
                    5a:94:14:59:22:9c:75:70:87:12:92:5d:fc:59:6e:
                    a0:97:a9:ad:f2:6f:a1:12:9d:f6:12:f7:3e:0f:28:
                    33:a9:8d:8f:cd:e3:05:78:9b:6f:1f:5e:6d:a8:cc:
                    2f:1b:aa:4c:76:00:a0:7d:0e:eb:79:f8:89:1d:6c:
                    82:73
                Exponent: 65537 (0x10001)
        X509v3 extensions:
            X509v3 Key Usage: critical
                Digital Signature, Key Encipherment
            X509v3 Basic Constraints: 
                CA:FALSE
            X509v3 Extended Key Usage: 
                TLS Web Server Authentication, TLS Web Client Authentication
            X509v3 Subject Key Identifier: 
                23:CD:F9:0E:F0:44:BA:30:89:66:7B:13:EC:0F:DF:A4:BD:A1:2B:84
            X509v3 Authority Key Identifier: 
                keyid:50:A3:98:A2:0C:D8:8B:93:15:94:01:8C:C4:DB:8E:6B:FA:BB:FA:88

            X509v3 Subject Alternative Name: 
                DNS:yourdomain.tld
    Signature Algorithm: sha1WithRSAEncryption
         cc:e4:9b:51:9d:95:a9:df:fb:b5:a9:63:04:0e:54:e2:bc:f4:
         0a:91:7a:ec:7a:ca:2e:e2:d7:31:7b:be:4b:ef:f6:04:97:d6:
         e6:f6:3d:e8:cb:33:26:81:93:5c:18:46:58:53:fa:c4:d9:62:
         65:7e:e3:54:36:9f:f6:66:08:77:6b:8b:8c:7a:22:b9:ce:d1:
         b5:2c:7c:57:7c:6a:8a:c6:56:2b:80:f9:d6:c7:5d:f7:4c:04:
         ff:ac:0e:50:41:c0:59:da:ec:1d:f0:ad:79:71:ab:e2:be:5e:
         2d:50:17:65:fe:f0:8d:b5:7e:39:b9:91:c8:a3:7b:b8:c9:e1:
         47:7a:50:c6:c0:cc:ec:f6:5d:88:03:90:83:ec:7e:08:ca:e6:
         33:69:ca:0d:df:76:b7:d1:02:b6:ab:13:87:e4:a8:66:ca:02:
         32:22:e4:68:53:ee:c4:f9:77:62:1f:2a:d1:72:eb:3d:0a:5c:
         ba:3b:aa:91:9e:fd:2c:cd:68:ec:a2:e1:bf:f7:5f:b6:9e:7f:
         6d:21:60:ed:1e:5b:d2:09:49:e8:e2:95:61:3b:e6:a9:ae:16:
         14:b3:46:97:da:29:a8:cc:df:b8:2c:18:2d:80:61:88:a5:cb:
         b7:c8:26:ca:bc:6e:22:30:80:a1:b5:7c:c9:05:cc:8e:2d:58:
         6b:97:2a:c0
-----BEGIN CERTIFICATE-----
MIIEKTCCAxGgAwIBAgIBAjANBgkqhkiG9w0BAQUFADCBnjETMBEGCgmSJomT8ixk
ARkWA2NvbTEfMB0GCgmSJomT8ixkARkWD3NlcmRhcmRlbWlyY2k1NTEcMBoGA1UE
CgwTU2VyZGFyZGVtaXJjaTU1IEluYzEjMCEGA1UECwwaU2VyZGFyZGVtaXJjaTU1
IFNpZ25pbmcgQ0ExIzAhBgNVBAMMGlNlcmRhcmRlbWlyY2k1NSBTaWduaW5nIENB
MB4XDTIxMTExOTExNDUzMFoXDTIzMTExOTExNDUzMFowdjETMBEGCgmSJomT8ixk
ARkWA2NvbTEfMB0GCgmSJomT8ixkARkWD3NlcmRhcmRlbWlyY2k1NTEcMBoGA1UE
CgwTU2VyZGFyZGVtaXJjaTU1IEluYzEgMB4GA1UEAwwXd3d3LnNlcmRhcmRlbWly
Y2k1NS5jb20wggEiMA0GCSqGSIb3DQEBAQUAA4IBDwAwggEKAoIBAQDYV0cbdvvX
i9WlqtKcMSHJAYxlKrgIFrtRukdV8mErJ9IsOel1w78viG0J4H9nXApcTfn0uhKZ
dKI2LaHJoVQYPLXkSeBvZVf5PvU3gJ1x+gTVT4A3QxS/EzY37+l7E6A2u3vZ+DLo
OLfduod6sBZ11d0fk+EioWHs/X00TdGcDjlmRKFmvqO4HQWLds9gUH9+YHWLbcqL
dP/YKM/ok38XsJVTpdlia0p9w0GnPjVtOjZkiuafV5FcwfbhHZHNz3cit1qUFFki
nHVwhxKSXfxZbqCXqa3yb6ESnfYS9z4PKDOpjY/N4wV4m28fXm2ozC8bqkx2AKB9
Dut5+IkdbIJzAgMBAAGjgZgwgZUwDgYDVR0PAQH/BAQDAgWgMAkGA1UdEwQCMAAw
HQYDVR0lBBYwFAYIKwYBBQUHAwEGCCsGAQUFBwMCMB0GA1UdDgQWBBQjzfkO8ES6
MIlmexPsD9+kvaErhDAfBgNVHSMEGDAWgBRQo5iiDNiLkxWUAYzE245r+rv6iDAZ
BgNVHREEEjAQgg55b3VyZG9tYWluLnRsZDANBgkqhkiG9w0BAQUFAAOCAQEAzOSb
UZ2Vqd/7taljBA5U4rz0CpF67HrKLuLXMXu+S+/2BJfW5vY96MszJoGTXBhGWFP6
xNliZX7jVDaf9mYId2uLjHoiuc7RtSx8V3xqisZWK4D51sdd90wE/6wOUEHAWdrs
HfCteXGr4r5eLVAXZf7wjbV+ObmRyKN7uMnhR3pQxsDM7PZdiAOQg+x+CMrmM2nK
Dd92t9ECtqsTh+SoZsoCMiLkaFPuxPl3Yh8q0XLrPQpcujuqkZ79LM1o7KLhv/df
tp5/bSFg7R5b0glJ6OKVYTvmqa4WFLNGl9opqMzfuCwYLYBhiKXLt8gmyrxuIjCA
obV8yQXMji1Ya5cqwA==
-----END CERTIFICATE-----
