Certificate:
    Data:
        Version: 3 (0x2)
        Serial Number: 1 (0x1)
    Signature Algorithm: sha1WithRSAEncryption
        Issuer: DC=com, DC=serdardemirci55, O=Serdardemirci55 Inc, OU=Serdardemirci55 Root CA, CN=Serdardemirci55 Root CA
        Validity
            Not Before: Nov 19 11:15:25 2021 GMT
            Not After : Nov 19 11:15:25 2031 GMT
        Subject: DC=com, DC=serdardemirci55, O=Serdardemirci55 Inc, OU=Serdardemirci55 Root CA, CN=Serdardemirci55 Root CA
        Subject Public Key Info:
            Public Key Algorithm: rsaEncryption
                Public-Key: (2048 bit)
                Modulus:
                    00:b7:ca:b8:96:78:4c:2d:91:b8:22:cd:50:35:12:
                    a3:16:1b:9d:9c:b8:57:3e:c9:55:83:a1:35:7b:91:
                    ff:2f:7b:7c:55:f0:48:1d:36:5b:99:de:a5:5c:e8:
                    d0:9f:9a:0c:11:e7:05:25:23:7d:a4:75:bc:4a:42:
                    57:b5:81:f7:53:0c:db:fc:a8:6a:f4:b0:33:dc:57:
                    60:58:8d:e9:bd:1e:66:8c:e2:2d:27:8c:2d:2e:28:
                    c8:a4:b2:ed:3b:23:25:e8:da:f9:f3:be:e8:ff:5c:
                    3f:d3:30:b9:a0:b0:48:cb:4e:9c:ac:8d:53:69:42:
                    aa:05:e2:a7:22:c9:e9:a5:e0:cb:90:4f:d9:2b:2a:
                    38:3b:fe:8e:30:45:41:ff:bf:af:de:78:2b:e6:72:
                    d9:34:c5:c1:97:89:d2:4e:25:11:ba:38:11:fa:8f:
                    f1:f9:dd:3b:6d:a6:1b:aa:ba:f1:1d:2f:33:ec:51:
                    9b:84:3b:6b:98:f6:0a:35:c3:0b:c7:95:83:ee:c6:
                    2a:13:e8:57:4a:ed:1f:8d:50:b9:a1:16:77:e1:38:
                    e8:33:50:4b:b0:d4:e7:83:9f:e7:63:ab:60:80:8a:
                    a0:f0:3f:f8:c5:3f:69:e9:54:5d:50:d1:48:84:aa:
                    51:32:ab:a9:6b:60:2b:63:1c:f5:ab:1e:5d:a9:aa:
                    46:91
                Exponent: 65537 (0x10001)
        X509v3 extensions:
            X509v3 Key Usage: critical
                Certificate Sign, CRL Sign
            X509v3 Basic Constraints: critical
                CA:TRUE
            X509v3 Subject Key Identifier: 
                00:7B:31:FA:B4:EC:3A:BE:AB:BE:CE:4A:F4:54:D2:B3:FF:D1:9E:64
            X509v3 Authority Key Identifier: 
                keyid:00:7B:31:FA:B4:EC:3A:BE:AB:BE:CE:4A:F4:54:D2:B3:FF:D1:9E:64

    Signature Algorithm: sha1WithRSAEncryption
         4e:bb:9a:31:e9:16:a4:1f:65:58:a1:2e:db:8d:50:b2:79:98:
         41:0c:21:50:81:25:33:4c:a3:ba:31:b8:db:f0:d4:bf:57:8f:
         aa:8a:ab:52:a3:ca:d9:0d:ad:cd:5c:3c:40:68:3e:b6:a0:66:
         14:1b:dc:e6:92:2e:d4:82:ea:17:1d:c8:fd:94:ec:a6:a5:0b:
         e0:e0:a5:33:fa:4f:f4:12:ac:fa:c5:7a:a0:91:f1:b2:0a:de:
         6d:11:c7:79:b9:8d:6a:c8:62:74:74:4d:ec:76:4a:fd:69:94:
         53:a8:1c:cf:77:14:4c:02:c4:13:b3:d6:e6:47:e7:f6:24:2f:
         15:17:0c:2d:12:fa:52:b4:1d:40:92:b0:f8:9a:0b:9e:4a:68:
         68:2d:f9:e3:f8:83:b4:dc:d7:f7:1f:bd:62:1d:88:06:b6:9a:
         26:81:11:0a:18:16:72:9f:f6:4a:0e:52:a9:bf:e0:c2:d4:81:
         f2:70:c2:59:08:b6:d7:6f:b7:30:e7:b6:d6:e4:5f:e2:a9:37:
         d7:5c:7c:6f:22:87:09:9d:1f:f0:c1:df:f4:46:4b:4a:fe:a3:
         70:49:15:51:61:e1:1f:ea:68:dd:ac:b4:12:f0:64:89:01:23:
         5a:e3:77:7a:bf:97:29:04:f5:8b:f9:30:99:fc:7a:1c:b8:c1:
         51:05:76:1c
-----BEGIN CERTIFICATE-----
MIIEEDCCAvigAwIBAgIBATANBgkqhkiG9w0BAQUFADCBmDETMBEGCgmSJomT8ixk
ARkWA2NvbTEfMB0GCgmSJomT8ixkARkWD3NlcmRhcmRlbWlyY2k1NTEcMBoGA1UE
CgwTU2VyZGFyZGVtaXJjaTU1IEluYzEgMB4GA1UECwwXU2VyZGFyZGVtaXJjaTU1
IFJvb3QgQ0ExIDAeBgNVBAMMF1NlcmRhcmRlbWlyY2k1NSBSb290IENBMB4XDTIx
MTExOTExMTUyNVoXDTMxMTExOTExMTUyNVowgZgxEzARBgoJkiaJk/IsZAEZFgNj
b20xHzAdBgoJkiaJk/IsZAEZFg9zZXJkYXJkZW1pcmNpNTUxHDAaBgNVBAoME1Nl
cmRhcmRlbWlyY2k1NSBJbmMxIDAeBgNVBAsMF1NlcmRhcmRlbWlyY2k1NSBSb290
IENBMSAwHgYDVQQDDBdTZXJkYXJkZW1pcmNpNTUgUm9vdCBDQTCCASIwDQYJKoZI
hvcNAQEBBQADggEPADCCAQoCggEBALfKuJZ4TC2RuCLNUDUSoxYbnZy4Vz7JVYOh
NXuR/y97fFXwSB02W5nepVzo0J+aDBHnBSUjfaR1vEpCV7WB91MM2/yoavSwM9xX
YFiN6b0eZoziLSeMLS4oyKSy7TsjJeja+fO+6P9cP9MwuaCwSMtOnKyNU2lCqgXi
pyLJ6aXgy5BP2SsqODv+jjBFQf+/r954K+Zy2TTFwZeJ0k4lEbo4EfqP8fndO22m
G6q68R0vM+xRm4Q7a5j2CjXDC8eVg+7GKhPoV0rtH41QuaEWd+E46DNQS7DU54Of
52OrYICKoPA/+MU/aelUXVDRSISqUTKrqWtgK2Mc9aseXamqRpECAwEAAaNjMGEw
DgYDVR0PAQH/BAQDAgEGMA8GA1UdEwEB/wQFMAMBAf8wHQYDVR0OBBYEFAB7Mfq0
7Dq+q77OSvRU0rP/0Z5kMB8GA1UdIwQYMBaAFAB7Mfq07Dq+q77OSvRU0rP/0Z5k
MA0GCSqGSIb3DQEBBQUAA4IBAQBOu5ox6RakH2VYoS7bjVCyeZhBDCFQgSUzTKO6
Mbjb8NS/V4+qiqtSo8rZDa3NXDxAaD62oGYUG9zmki7UguoXHcj9lOympQvg4KUz
+k/0Eqz6xXqgkfGyCt5tEcd5uY1qyGJ0dE3sdkr9aZRTqBzPdxRMAsQTs9bmR+f2
JC8VFwwtEvpStB1AkrD4mgueSmhoLfnj+IO03Nf3H71iHYgGtpomgREKGBZyn/ZK
DlKpv+DC1IHycMJZCLbXb7cw57bW5F/iqTfXXHxvIocJnR/wwd/0RktK/qNwSRVR
YeEf6mjdrLQS8GSJASNa43d6v5cpBPWL+TCZ/HocuMFRBXYc
-----END CERTIFICATE-----
