Certificate:
    Data:
        Version: 3 (0x2)
        Serial Number: 2 (0x2)
    Signature Algorithm: sha1WithRSAEncryption
        Issuer: DC=com, DC=serdardemirci55, O=Serdardemirci55 Inc, OU=Serdardemirci55 Root CA, CN=Serdardemirci55 Root CA
        Validity
            Not Before: Nov 19 11:22:37 2021 GMT
            Not After : Nov 19 11:22:37 2031 GMT
        Subject: DC=com, DC=serdardemirci55, O=Serdardemirci55 Inc, OU=Serdardemirci55 Signing CA, CN=Serdardemirci55 Signing CA
        Subject Public Key Info:
            Public Key Algorithm: rsaEncryption
                Public-Key: (2048 bit)
                Modulus:
                    00:d5:d6:b7:6c:82:ab:ce:a2:4c:fa:b6:af:99:5a:
                    19:14:45:bb:23:65:c6:74:eb:6b:2c:03:d1:86:57:
                    d7:b4:cc:ce:0f:f3:a9:e3:e9:86:ad:18:84:e7:e9:
                    f6:c8:c2:0d:cd:c9:8d:b4:59:24:67:c0:dd:cc:f4:
                    63:b3:03:cc:59:dc:14:16:a0:c8:45:f1:c3:9e:2f:
                    80:8a:17:f2:6a:fb:91:d2:29:13:7e:40:bc:ae:8b:
                    ae:15:35:12:65:da:c0:dd:c8:93:00:89:15:aa:ee:
                    52:30:28:c7:23:0a:fb:18:5c:50:fc:f0:fb:c1:67:
                    a2:b7:a7:13:01:27:02:0d:8d:4f:93:da:af:85:d9:
                    5c:df:1a:66:79:df:28:8a:9f:31:25:e1:02:19:f3:
                    72:7a:bf:c0:72:13:dd:fa:aa:ee:4b:c9:0e:a7:61:
                    e4:bd:07:a6:1d:11:b3:4e:68:0a:f5:7b:f7:8c:ec:
                    d9:18:96:03:7d:aa:f7:86:33:f7:e2:2d:b7:0c:23:
                    57:f9:a5:2e:94:2d:4c:5b:70:b3:58:bd:ec:7e:e6:
                    8c:4c:95:8a:1b:b2:b9:f5:c2:7a:8e:b2:81:7c:77:
                    7a:65:78:ec:72:da:49:77:95:7b:b6:b4:eb:c5:81:
                    c3:89:b3:46:d7:d8:47:01:13:e1:91:ba:9e:9b:bd:
                    a9:ad
                Exponent: 65537 (0x10001)
        X509v3 extensions:
            X509v3 Key Usage: critical
                Certificate Sign, CRL Sign
            X509v3 Basic Constraints: critical
                CA:TRUE, pathlen:0
            X509v3 Subject Key Identifier: 
                50:A3:98:A2:0C:D8:8B:93:15:94:01:8C:C4:DB:8E:6B:FA:BB:FA:88
            X509v3 Authority Key Identifier: 
                keyid:00:7B:31:FA:B4:EC:3A:BE:AB:BE:CE:4A:F4:54:D2:B3:FF:D1:9E:64

    Signature Algorithm: sha1WithRSAEncryption
         42:2c:a2:85:d1:bf:7d:0c:54:c6:d5:93:1d:78:6e:e5:d3:85:
         59:0a:9c:86:c4:d3:56:60:05:0a:d6:f7:9f:91:09:4a:c9:ba:
         2a:1d:0d:8d:f9:55:25:52:da:72:10:3d:fb:1b:84:32:18:b9:
         0c:95:8b:21:65:66:28:35:f8:bb:b1:44:d3:a5:fc:26:20:6d:
         ce:00:04:43:44:81:27:cf:ad:e3:64:72:a4:c8:b4:4b:41:1e:
         5c:66:6d:3e:d0:ba:4e:f2:81:57:b9:c4:73:69:1a:a5:2f:17:
         ba:8e:b1:fa:05:0e:2a:6c:52:57:a4:3b:9d:31:6a:78:5e:de:
         2f:f7:26:b9:5a:13:ac:54:8d:d7:5c:4a:3c:33:5a:c1:77:f0:
         1a:46:62:ae:67:65:c9:a4:e8:16:f8:fe:ea:ad:3f:6a:d1:26:
         75:80:0c:6e:fa:8d:6a:ca:9e:c5:89:69:1f:c7:28:46:f8:54:
         9b:f2:18:ed:8a:cd:be:6e:18:e7:5e:b8:04:ed:3d:e2:f1:6b:
         08:ca:b3:1f:56:fb:75:aa:3a:c3:9d:ae:d2:97:f0:ad:91:dd:
         81:e6:17:da:9a:e9:14:5c:6a:14:b1:d2:59:a7:57:22:2b:84:
         a0:97:c2:43:82:2a:34:db:43:29:61:7b:8f:84:be:e8:0f:d6:
         f5:6d:36:9f
-----BEGIN CERTIFICATE-----
MIIEGTCCAwGgAwIBAgIBAjANBgkqhkiG9w0BAQUFADCBmDETMBEGCgmSJomT8ixk
ARkWA2NvbTEfMB0GCgmSJomT8ixkARkWD3NlcmRhcmRlbWlyY2k1NTEcMBoGA1UE
CgwTU2VyZGFyZGVtaXJjaTU1IEluYzEgMB4GA1UECwwXU2VyZGFyZGVtaXJjaTU1
IFJvb3QgQ0ExIDAeBgNVBAMMF1NlcmRhcmRlbWlyY2k1NSBSb290IENBMB4XDTIx
MTExOTExMjIzN1oXDTMxMTExOTExMjIzN1owgZ4xEzARBgoJkiaJk/IsZAEZFgNj
b20xHzAdBgoJkiaJk/IsZAEZFg9zZXJkYXJkZW1pcmNpNTUxHDAaBgNVBAoME1Nl
cmRhcmRlbWlyY2k1NSBJbmMxIzAhBgNVBAsMGlNlcmRhcmRlbWlyY2k1NSBTaWdu
aW5nIENBMSMwIQYDVQQDDBpTZXJkYXJkZW1pcmNpNTUgU2lnbmluZyBDQTCCASIw
DQYJKoZIhvcNAQEBBQADggEPADCCAQoCggEBANXWt2yCq86iTPq2r5laGRRFuyNl
xnTraywD0YZX17TMzg/zqePphq0YhOfp9sjCDc3JjbRZJGfA3cz0Y7MDzFncFBag
yEXxw54vgIoX8mr7kdIpE35AvK6LrhU1EmXawN3IkwCJFaruUjAoxyMK+xhcUPzw
+8FnorenEwEnAg2NT5Par4XZXN8aZnnfKIqfMSXhAhnzcnq/wHIT3fqq7kvJDqdh
5L0Hph0Rs05oCvV794zs2RiWA32q94Yz9+IttwwjV/mlLpQtTFtws1i97H7mjEyV
ihuyufXCeo6ygXx3emV47HLaSXeVe7a068WBw4mzRtfYRwET4ZG6npu9qa0CAwEA
AaNmMGQwDgYDVR0PAQH/BAQDAgEGMBIGA1UdEwEB/wQIMAYBAf8CAQAwHQYDVR0O
BBYEFFCjmKIM2IuTFZQBjMTbjmv6u/qIMB8GA1UdIwQYMBaAFAB7Mfq07Dq+q77O
SvRU0rP/0Z5kMA0GCSqGSIb3DQEBBQUAA4IBAQBCLKKF0b99DFTG1ZMdeG7l04VZ
CpyGxNNWYAUK1vefkQlKyboqHQ2N+VUlUtpyED37G4QyGLkMlYshZWYoNfi7sUTT
pfwmIG3OAARDRIEnz63jZHKkyLRLQR5cZm0+0LpO8oFXucRzaRqlLxe6jrH6BQ4q
bFJXpDudMWp4Xt4v9ya5WhOsVI3XXEo8M1rBd/AaRmKuZ2XJpOgW+P7qrT9q0SZ1
gAxu+o1qyp7FiWkfxyhG+FSb8hjtis2+bhjnXrgE7T3i8WsIyrMfVvt1qjrDna7S
l/Ctkd2B5hfamukUXGoUsdJZp1ciK4Sgl8JDgio020MpYXuPhL7oD9b1bTaf
-----END CERTIFICATE-----
Certificate:
    Data:
        Version: 3 (0x2)
        Serial Number: 1 (0x1)
    Signature Algorithm: sha1WithRSAEncryption
        Issuer: DC=com, DC=serdardemirci55, O=Serdardemirci55 Inc, OU=Serdardemirci55 Root CA, CN=Serdardemirci55 Root CA
        Validity
            Not Before: Nov 19 11:15:25 2021 GMT
            Not After : Nov 19 11:15:25 2031 GMT
        Subject: DC=com, DC=serdardemirci55, O=Serdardemirci55 Inc, OU=Serdardemirci55 Root CA, CN=Serdardemirci55 Root CA
        Subject Public Key Info:
            Public Key Algorithm: rsaEncryption
                Public-Key: (2048 bit)
                Modulus:
                    00:b7:ca:b8:96:78:4c:2d:91:b8:22:cd:50:35:12:
                    a3:16:1b:9d:9c:b8:57:3e:c9:55:83:a1:35:7b:91:
                    ff:2f:7b:7c:55:f0:48:1d:36:5b:99:de:a5:5c:e8:
                    d0:9f:9a:0c:11:e7:05:25:23:7d:a4:75:bc:4a:42:
                    57:b5:81:f7:53:0c:db:fc:a8:6a:f4:b0:33:dc:57:
                    60:58:8d:e9:bd:1e:66:8c:e2:2d:27:8c:2d:2e:28:
                    c8:a4:b2:ed:3b:23:25:e8:da:f9:f3:be:e8:ff:5c:
                    3f:d3:30:b9:a0:b0:48:cb:4e:9c:ac:8d:53:69:42:
                    aa:05:e2:a7:22:c9:e9:a5:e0:cb:90:4f:d9:2b:2a:
                    38:3b:fe:8e:30:45:41:ff:bf:af:de:78:2b:e6:72:
                    d9:34:c5:c1:97:89:d2:4e:25:11:ba:38:11:fa:8f:
                    f1:f9:dd:3b:6d:a6:1b:aa:ba:f1:1d:2f:33:ec:51:
                    9b:84:3b:6b:98:f6:0a:35:c3:0b:c7:95:83:ee:c6:
                    2a:13:e8:57:4a:ed:1f:8d:50:b9:a1:16:77:e1:38:
                    e8:33:50:4b:b0:d4:e7:83:9f:e7:63:ab:60:80:8a:
                    a0:f0:3f:f8:c5:3f:69:e9:54:5d:50:d1:48:84:aa:
                    51:32:ab:a9:6b:60:2b:63:1c:f5:ab:1e:5d:a9:aa:
                    46:91
                Exponent: 65537 (0x10001)
        X509v3 extensions:
            X509v3 Key Usage: critical
                Certificate Sign, CRL Sign
            X509v3 Basic Constraints: critical
                CA:TRUE
            X509v3 Subject Key Identifier: 
                00:7B:31:FA:B4:EC:3A:BE:AB:BE:CE:4A:F4:54:D2:B3:FF:D1:9E:64
            X509v3 Authority Key Identifier: 
                keyid:00:7B:31:FA:B4:EC:3A:BE:AB:BE:CE:4A:F4:54:D2:B3:FF:D1:9E:64

    Signature Algorithm: sha1WithRSAEncryption
         4e:bb:9a:31:e9:16:a4:1f:65:58:a1:2e:db:8d:50:b2:79:98:
         41:0c:21:50:81:25:33:4c:a3:ba:31:b8:db:f0:d4:bf:57:8f:
         aa:8a:ab:52:a3:ca:d9:0d:ad:cd:5c:3c:40:68:3e:b6:a0:66:
         14:1b:dc:e6:92:2e:d4:82:ea:17:1d:c8:fd:94:ec:a6:a5:0b:
         e0:e0:a5:33:fa:4f:f4:12:ac:fa:c5:7a:a0:91:f1:b2:0a:de:
         6d:11:c7:79:b9:8d:6a:c8:62:74:74:4d:ec:76:4a:fd:69:94:
         53:a8:1c:cf:77:14:4c:02:c4:13:b3:d6:e6:47:e7:f6:24:2f:
         15:17:0c:2d:12:fa:52:b4:1d:40:92:b0:f8:9a:0b:9e:4a:68:
         68:2d:f9:e3:f8:83:b4:dc:d7:f7:1f:bd:62:1d:88:06:b6:9a:
         26:81:11:0a:18:16:72:9f:f6:4a:0e:52:a9:bf:e0:c2:d4:81:
         f2:70:c2:59:08:b6:d7:6f:b7:30:e7:b6:d6:e4:5f:e2:a9:37:
         d7:5c:7c:6f:22:87:09:9d:1f:f0:c1:df:f4:46:4b:4a:fe:a3:
         70:49:15:51:61:e1:1f:ea:68:dd:ac:b4:12:f0:64:89:01:23:
         5a:e3:77:7a:bf:97:29:04:f5:8b:f9:30:99:fc:7a:1c:b8:c1:
         51:05:76:1c
-----BEGIN CERTIFICATE-----
MIIEEDCCAvigAwIBAgIBATANBgkqhkiG9w0BAQUFADCBmDETMBEGCgmSJomT8ixk
ARkWA2NvbTEfMB0GCgmSJomT8ixkARkWD3NlcmRhcmRlbWlyY2k1NTEcMBoGA1UE
CgwTU2VyZGFyZGVtaXJjaTU1IEluYzEgMB4GA1UECwwXU2VyZGFyZGVtaXJjaTU1
IFJvb3QgQ0ExIDAeBgNVBAMMF1NlcmRhcmRlbWlyY2k1NSBSb290IENBMB4XDTIx
MTExOTExMTUyNVoXDTMxMTExOTExMTUyNVowgZgxEzARBgoJkiaJk/IsZAEZFgNj
b20xHzAdBgoJkiaJk/IsZAEZFg9zZXJkYXJkZW1pcmNpNTUxHDAaBgNVBAoME1Nl
cmRhcmRlbWlyY2k1NSBJbmMxIDAeBgNVBAsMF1NlcmRhcmRlbWlyY2k1NSBSb290
IENBMSAwHgYDVQQDDBdTZXJkYXJkZW1pcmNpNTUgUm9vdCBDQTCCASIwDQYJKoZI
hvcNAQEBBQADggEPADCCAQoCggEBALfKuJZ4TC2RuCLNUDUSoxYbnZy4Vz7JVYOh
NXuR/y97fFXwSB02W5nepVzo0J+aDBHnBSUjfaR1vEpCV7WB91MM2/yoavSwM9xX
YFiN6b0eZoziLSeMLS4oyKSy7TsjJeja+fO+6P9cP9MwuaCwSMtOnKyNU2lCqgXi
pyLJ6aXgy5BP2SsqODv+jjBFQf+/r954K+Zy2TTFwZeJ0k4lEbo4EfqP8fndO22m
G6q68R0vM+xRm4Q7a5j2CjXDC8eVg+7GKhPoV0rtH41QuaEWd+E46DNQS7DU54Of
52OrYICKoPA/+MU/aelUXVDRSISqUTKrqWtgK2Mc9aseXamqRpECAwEAAaNjMGEw
DgYDVR0PAQH/BAQDAgEGMA8GA1UdEwEB/wQFMAMBAf8wHQYDVR0OBBYEFAB7Mfq0
7Dq+q77OSvRU0rP/0Z5kMB8GA1UdIwQYMBaAFAB7Mfq07Dq+q77OSvRU0rP/0Z5k
MA0GCSqGSIb3DQEBBQUAA4IBAQBOu5ox6RakH2VYoS7bjVCyeZhBDCFQgSUzTKO6
Mbjb8NS/V4+qiqtSo8rZDa3NXDxAaD62oGYUG9zmki7UguoXHcj9lOympQvg4KUz
+k/0Eqz6xXqgkfGyCt5tEcd5uY1qyGJ0dE3sdkr9aZRTqBzPdxRMAsQTs9bmR+f2
JC8VFwwtEvpStB1AkrD4mgueSmhoLfnj+IO03Nf3H71iHYgGtpomgREKGBZyn/ZK
DlKpv+DC1IHycMJZCLbXb7cw57bW5F/iqTfXXHxvIocJnR/wwd/0RktK/qNwSRVR
YeEf6mjdrLQS8GSJASNa43d6v5cpBPWL+TCZ/HocuMFRBXYc
-----END CERTIFICATE-----
