Certificate:
    Data:
        Version: 3 (0x2)
        Serial Number: 2 (0x2)
    Signature Algorithm: sha1WithRSAEncryption
        Issuer: DC=com, DC=serdardemirci55, O=Serdardemirci55 Inc, OU=Serdardemirci55 Root CA, CN=Serdardemirci55 Root CA
        Validity
            Not Before: Nov 19 11:22:37 2021 GMT
            Not After : Nov 19 11:22:37 2031 GMT
        Subject: DC=com, DC=serdardemirci55, O=Serdardemirci55 Inc, OU=Serdardemirci55 Signing CA, CN=Serdardemirci55 Signing CA
        Subject Public Key Info:
            Public Key Algorithm: rsaEncryption
                Public-Key: (2048 bit)
                Modulus:
                    00:d5:d6:b7:6c:82:ab:ce:a2:4c:fa:b6:af:99:5a:
                    19:14:45:bb:23:65:c6:74:eb:6b:2c:03:d1:86:57:
                    d7:b4:cc:ce:0f:f3:a9:e3:e9:86:ad:18:84:e7:e9:
                    f6:c8:c2:0d:cd:c9:8d:b4:59:24:67:c0:dd:cc:f4:
                    63:b3:03:cc:59:dc:14:16:a0:c8:45:f1:c3:9e:2f:
                    80:8a:17:f2:6a:fb:91:d2:29:13:7e:40:bc:ae:8b:
                    ae:15:35:12:65:da:c0:dd:c8:93:00:89:15:aa:ee:
                    52:30:28:c7:23:0a:fb:18:5c:50:fc:f0:fb:c1:67:
                    a2:b7:a7:13:01:27:02:0d:8d:4f:93:da:af:85:d9:
                    5c:df:1a:66:79:df:28:8a:9f:31:25:e1:02:19:f3:
                    72:7a:bf:c0:72:13:dd:fa:aa:ee:4b:c9:0e:a7:61:
                    e4:bd:07:a6:1d:11:b3:4e:68:0a:f5:7b:f7:8c:ec:
                    d9:18:96:03:7d:aa:f7:86:33:f7:e2:2d:b7:0c:23:
                    57:f9:a5:2e:94:2d:4c:5b:70:b3:58:bd:ec:7e:e6:
                    8c:4c:95:8a:1b:b2:b9:f5:c2:7a:8e:b2:81:7c:77:
                    7a:65:78:ec:72:da:49:77:95:7b:b6:b4:eb:c5:81:
                    c3:89:b3:46:d7:d8:47:01:13:e1:91:ba:9e:9b:bd:
                    a9:ad
                Exponent: 65537 (0x10001)
        X509v3 extensions:
            X509v3 Key Usage: critical
                Certificate Sign, CRL Sign
            X509v3 Basic Constraints: critical
                CA:TRUE, pathlen:0
            X509v3 Subject Key Identifier: 
                50:A3:98:A2:0C:D8:8B:93:15:94:01:8C:C4:DB:8E:6B:FA:BB:FA:88
            X509v3 Authority Key Identifier: 
                keyid:00:7B:31:FA:B4:EC:3A:BE:AB:BE:CE:4A:F4:54:D2:B3:FF:D1:9E:64

    Signature Algorithm: sha1WithRSAEncryption
         42:2c:a2:85:d1:bf:7d:0c:54:c6:d5:93:1d:78:6e:e5:d3:85:
         59:0a:9c:86:c4:d3:56:60:05:0a:d6:f7:9f:91:09:4a:c9:ba:
         2a:1d:0d:8d:f9:55:25:52:da:72:10:3d:fb:1b:84:32:18:b9:
         0c:95:8b:21:65:66:28:35:f8:bb:b1:44:d3:a5:fc:26:20:6d:
         ce:00:04:43:44:81:27:cf:ad:e3:64:72:a4:c8:b4:4b:41:1e:
         5c:66:6d:3e:d0:ba:4e:f2:81:57:b9:c4:73:69:1a:a5:2f:17:
         ba:8e:b1:fa:05:0e:2a:6c:52:57:a4:3b:9d:31:6a:78:5e:de:
         2f:f7:26:b9:5a:13:ac:54:8d:d7:5c:4a:3c:33:5a:c1:77:f0:
         1a:46:62:ae:67:65:c9:a4:e8:16:f8:fe:ea:ad:3f:6a:d1:26:
         75:80:0c:6e:fa:8d:6a:ca:9e:c5:89:69:1f:c7:28:46:f8:54:
         9b:f2:18:ed:8a:cd:be:6e:18:e7:5e:b8:04:ed:3d:e2:f1:6b:
         08:ca:b3:1f:56:fb:75:aa:3a:c3:9d:ae:d2:97:f0:ad:91:dd:
         81:e6:17:da:9a:e9:14:5c:6a:14:b1:d2:59:a7:57:22:2b:84:
         a0:97:c2:43:82:2a:34:db:43:29:61:7b:8f:84:be:e8:0f:d6:
         f5:6d:36:9f
-----BEGIN CERTIFICATE-----
MIIEGTCCAwGgAwIBAgIBAjANBgkqhkiG9w0BAQUFADCBmDETMBEGCgmSJomT8ixk
ARkWA2NvbTEfMB0GCgmSJomT8ixkARkWD3NlcmRhcmRlbWlyY2k1NTEcMBoGA1UE
CgwTU2VyZGFyZGVtaXJjaTU1IEluYzEgMB4GA1UECwwXU2VyZGFyZGVtaXJjaTU1
IFJvb3QgQ0ExIDAeBgNVBAMMF1NlcmRhcmRlbWlyY2k1NSBSb290IENBMB4XDTIx
MTExOTExMjIzN1oXDTMxMTExOTExMjIzN1owgZ4xEzARBgoJkiaJk/IsZAEZFgNj
b20xHzAdBgoJkiaJk/IsZAEZFg9zZXJkYXJkZW1pcmNpNTUxHDAaBgNVBAoME1Nl
cmRhcmRlbWlyY2k1NSBJbmMxIzAhBgNVBAsMGlNlcmRhcmRlbWlyY2k1NSBTaWdu
aW5nIENBMSMwIQYDVQQDDBpTZXJkYXJkZW1pcmNpNTUgU2lnbmluZyBDQTCCASIw
DQYJKoZIhvcNAQEBBQADggEPADCCAQoCggEBANXWt2yCq86iTPq2r5laGRRFuyNl
xnTraywD0YZX17TMzg/zqePphq0YhOfp9sjCDc3JjbRZJGfA3cz0Y7MDzFncFBag
yEXxw54vgIoX8mr7kdIpE35AvK6LrhU1EmXawN3IkwCJFaruUjAoxyMK+xhcUPzw
+8FnorenEwEnAg2NT5Par4XZXN8aZnnfKIqfMSXhAhnzcnq/wHIT3fqq7kvJDqdh
5L0Hph0Rs05oCvV794zs2RiWA32q94Yz9+IttwwjV/mlLpQtTFtws1i97H7mjEyV
ihuyufXCeo6ygXx3emV47HLaSXeVe7a068WBw4mzRtfYRwET4ZG6npu9qa0CAwEA
AaNmMGQwDgYDVR0PAQH/BAQDAgEGMBIGA1UdEwEB/wQIMAYBAf8CAQAwHQYDVR0O
BBYEFFCjmKIM2IuTFZQBjMTbjmv6u/qIMB8GA1UdIwQYMBaAFAB7Mfq07Dq+q77O
SvRU0rP/0Z5kMA0GCSqGSIb3DQEBBQUAA4IBAQBCLKKF0b99DFTG1ZMdeG7l04VZ
CpyGxNNWYAUK1vefkQlKyboqHQ2N+VUlUtpyED37G4QyGLkMlYshZWYoNfi7sUTT
pfwmIG3OAARDRIEnz63jZHKkyLRLQR5cZm0+0LpO8oFXucRzaRqlLxe6jrH6BQ4q
bFJXpDudMWp4Xt4v9ya5WhOsVI3XXEo8M1rBd/AaRmKuZ2XJpOgW+P7qrT9q0SZ1
gAxu+o1qyp7FiWkfxyhG+FSb8hjtis2+bhjnXrgE7T3i8WsIyrMfVvt1qjrDna7S
l/Ctkd2B5hfamukUXGoUsdJZp1ciK4Sgl8JDgio020MpYXuPhL7oD9b1bTaf
-----END CERTIFICATE-----
